target datalayout = "e-m:e-p270:32:32-p271:32:32-p272:64:64-i64:64-i128:128-f80:128-n8:16:32:64-S128"
target triple = "x86_64-pc-linux-gnu"

@.str.18 = private unnamed_addr constant [33 x i8] c"../openssl/test/evp_extra_test.c\00", align 1
@.str.222 = private unnamed_addr constant [74 x i8] c"p8inf = d2i_PKCS8_PRIV_KEY_INFO(NULL, &derp, sizeof(kExampleBadECKeyDER))\00", align 1
@.str.223 = private unnamed_addr constant [5 x i8] c"derp\00", align 1
@.str.224 = private unnamed_addr constant [50 x i8] c"kExampleBadECKeyDER + sizeof(kExampleBadECKeyDER)\00", align 1
@.str.225 = private unnamed_addr constant [29 x i8] c"pkey = EVP_PKCS82PKEY(p8inf)\00", align 1

; Function Attrs: nounwind uwtable
define internal i32 @test_EVP_PKCS82PKEY() #0 {
  %1 = alloca i32, align 4
  %2 = alloca ptr, align 8
  %3 = alloca ptr, align 8
  %4 = alloca ptr, align 8
  call void @llvm.lifetime.start.p0(i64 4, ptr %1) #8
  store i32 0, ptr %1, align 4, !tbaa !9
  call void @llvm.lifetime.start.p0(i64 8, ptr %2) #8
  store ptr @kExampleBadECKeyDER, ptr %2, align 8, !tbaa !4
  call void @llvm.lifetime.start.p0(i64 8, ptr %3) #8
  store ptr null, ptr %3, align 8, !tbaa !49
  call void @llvm.lifetime.start.p0(i64 8, ptr %4) #8
  store ptr null, ptr %4, align 8, !tbaa !21
  %5 = call ptr @d2i_PKCS8_PRIV_KEY_INFO(ptr noundef null, ptr noundef %2, i64 noundef 104)
  store ptr %5, ptr %3, align 8, !tbaa !49
  %6 = call i32 @test_ptr(ptr noundef @.str.18, i32 noundef 2138, ptr noundef @.str.222, ptr noundef %5)
  %7 = icmp ne i32 %6, 0
  br i1 %7, label %9, label %8

8:                                                ; preds = %0
  br label %21

9:                                                ; preds = %0
  %10 = load ptr, ptr %2, align 8, !tbaa !4
  %11 = call i32 @test_ptr_eq(ptr noundef @.str.18, i32 noundef 2142, ptr noundef @.str.223, ptr noundef @.str.224, ptr noundef %10, ptr noundef getelementptr inbounds nuw (i8, ptr @kExampleBadECKeyDER, i64 104))
  %12 = icmp ne i32 %11, 0
  br i1 %12, label %14, label %13

13:                                               ; preds = %9
  br label %21

14:                                               ; preds = %9
  %15 = load ptr, ptr %3, align 8, !tbaa !49
  %16 = call ptr @EVP_PKCS82PKEY(ptr noundef %15)
  store ptr %16, ptr %4, align 8, !tbaa !21
  %17 = call i32 @test_ptr_null(ptr noundef @.str.18, i32 noundef 2145, ptr noundef @.str.225, ptr noundef %16)
  %18 = icmp ne i32 %17, 0
  br i1 %18, label %20, label %19

19:                                               ; preds = %14
  br label %21

20:                                               ; preds = %14
  store i32 1, ptr %1, align 4, !tbaa !9
  br label %21

21:                                               ; preds = %20, %19, %13, %8
  %22 = load ptr, ptr %3, align 8, !tbaa !49
  call void @PKCS8_PRIV_KEY_INFO_free(ptr noundef %22)
  %23 = load ptr, ptr %4, align 8, !tbaa !21
  call void @EVP_PKEY_free(ptr noundef %23)
  %24 = load i32, ptr %1, align 4, !tbaa !9
  call void @llvm.lifetime.end.p0(i64 8, ptr %4) #8
  call void @llvm.lifetime.end.p0(i64 8, ptr %3) #8
  call void @llvm.lifetime.end.p0(i64 8, ptr %2) #8
  call void @llvm.lifetime.end.p0(i64 4, ptr %1) #8
  ret i32 %24
}