; Function Attrs: nounwind uwtable
define internal range(i32 0, 2) i32 @test_EVP_PKCS82PKEY() #1 {
  %1 = alloca ptr, align 8
  call void @llvm.lifetime.start.p0(i64 8, ptr nonnull %1) #9
  store ptr @kExampleBadECKeyDER, ptr %1, align 8, !tbaa !19
  %2 = call ptr @d2i_PKCS8_PRIV_KEY_INFO(ptr noundef null, ptr noundef nonnull %1, i64 noundef 104) #9
  %3 = call i32 @test_ptr(ptr noundef nonnull @.str.18, i32 noundef 2138, ptr noundef nonnull @.str.222, ptr noundef %2) #9
  %.not = icmp eq i32 %3, 0
  br i1 %.not, label %10, label %4

4:                                                ; preds = %0
  %5 = load ptr, ptr %1, align 8, !tbaa !19
  %6 = call i32 @test_ptr_eq(ptr noundef nonnull @.str.18, i32 noundef 2142, ptr noundef nonnull @.str.223, ptr noundef nonnull @.str.224, ptr noundef %5, ptr noundef nonnull getelementptr inbounds nuw (i8, ptr @kExampleBadECKeyDER, i64 104)) #9
  %.not4 = icmp eq i32 %6, 0
  br i1 %.not4, label %10, label %7

7:                                                ; preds = %4
  %8 = call ptr @EVP_PKCS82PKEY(ptr noundef %2) #9
  %9 = call i32 @test_ptr_null(ptr noundef nonnull @.str.18, i32 noundef 2145, ptr noundef nonnull @.str.225, ptr noundef %8) #9
  %.not5 = icmp ne i32 %9, 0
  %spec.select = zext i1 %.not5 to i32
  br label %10

10:                                               ; preds = %7, %4, %0
  %.03 = phi i32 [ 0, %4 ], [ 0, %0 ], [ %spec.select, %7 ]
  %.0 = phi ptr [ null, %4 ], [ null, %0 ], [ %8, %7 ]
  call void @PKCS8_PRIV_KEY_INFO_free(ptr noundef %2) #9
  call void @EVP_PKEY_free(ptr noundef %.0) #9
  call void @llvm.lifetime.end.p0(i64 8, ptr nonnull %1) #9
  ret i32 %.03
}